target datalayout = "e-m:e-p270:32:32-p271:32:32-p272:64:64-i64:64-i128:128-f80:128-n8:16:32:64-S128"
target triple = "x86_64-pc-linux-gnu"

; Function Attrs: inlinehint mustprogress nounwind uwtable
define linkonce_odr hidden noundef i32 @_ZN5boost7archive6detail6detail29get_cont_octet_out_count_implILm4EEEiw(i32 noundef signext %0) #6 comdat {
  %2 = alloca i32, align 4
  %3 = alloca i32, align 4
  store i32 %0, ptr %3, align 4, !tbaa !14
  %4 = load i32, ptr %3, align 4, !tbaa !14
  %5 = icmp slt i32 %4, 128
  br i1 %5, label %6, label %7

6:                                                ; preds = %1
  store i32 0, ptr %2, align 4
  br label %24

7:                                                ; preds = %1
  %8 = load i32, ptr %3, align 4, !tbaa !14
  %9 = icmp slt i32 %8, 2048
  br i1 %9, label %10, label %11

10:                                               ; preds = %7
  store i32 1, ptr %2, align 4
  br label %24

11:                                               ; preds = %7
  %12 = load i32, ptr %3, align 4, !tbaa !14
  %13 = icmp slt i32 %12, 65536
  br i1 %13, label %14, label %15

14:                                               ; preds = %11
  store i32 2, ptr %2, align 4
  br label %24

15:                                               ; preds = %11
  %16 = load i32, ptr %3, align 4, !tbaa !14
  %17 = icmp slt i32 %16, 2097152
  br i1 %17, label %18, label %19

18:                                               ; preds = %15
  store i32 3, ptr %2, align 4
  br label %24

19:                                               ; preds = %15
  %20 = load i32, ptr %3, align 4, !tbaa !14
  %21 = icmp slt i32 %20, 67108864
  br i1 %21, label %22, label %23

22:                                               ; preds = %19
  store i32 4, ptr %2, align 4
  br label %24

23:                                               ; preds = %19
  store i32 5, ptr %2, align 4
  br label %24

24:                                               ; preds = %23, %22, %18, %14, %10, %6
  %25 = load i32, ptr %2, align 4
  ret i32 %25
}

; Function Attrs: mustprogress uwtable
define noundef i32 @_ZN5boost7archive6detail18utf8_codecvt_facet24get_cont_octet_out_countEw(i32 noundef signext %0) #0 align 2 {
  %2 = alloca i32, align 4
  store i32 %0, ptr %2, align 4, !tbaa !14
  %3 = load i32, ptr %2, align 4, !tbaa !14
  %4 = call noundef i32 @_ZN5boost7archive6detail6detail29get_cont_octet_out_count_implILm4EEEiw(i32 noundef signext %3)
  ret i32 %4
}