; Function Attrs: mustprogress nofree norecurse nosync nounwind willreturn memory(none) uwtable
define noundef range(i32 0, 6) i32 @_ZN5boost7archive6detail18utf8_codecvt_facet24get_cont_octet_out_countEw(i32 noundef signext %0) local_unnamed_addr #6 align 2 {
  %2 = icmp slt i32 %0, 128
  br i1 %2, label %_ZN5boost7archive6detail6detail29get_cont_octet_out_count_implILm4EEEiw.exit, label %3

3:                                                ; preds = %1
  %4 = icmp ult i32 %0, 2048
  br i1 %4, label %_ZN5boost7archive6detail6detail29get_cont_octet_out_count_implILm4EEEiw.exit, label %5

5:                                                ; preds = %3
  %6 = icmp ult i32 %0, 65536
  br i1 %6, label %_ZN5boost7archive6detail6detail29get_cont_octet_out_count_implILm4EEEiw.exit, label %7

7:                                                ; preds = %5
  %8 = icmp ult i32 %0, 2097152
  br i1 %8, label %_ZN5boost7archive6detail6detail29get_cont_octet_out_count_implILm4EEEiw.exit, label %9

9:                                                ; preds = %7
  %10 = icmp ult i32 %0, 67108864
  %..i = select i1 %10, i32 4, i32 5
  br label %_ZN5boost7archive6detail6detail29get_cont_octet_out_count_implILm4EEEiw.exit

_ZN5boost7archive6detail6detail29get_cont_octet_out_count_implILm4EEEiw.exit: ; preds = %1, %3, %5, %7, %9
  %.0.i = phi i32 [ 0, %1 ], [ 1, %3 ], [ 2, %5 ], [ 3, %7 ], [ %..i, %9 ]
  ret i32 %.0.i
}